Certificate:
    Data:
        Version: 3 (0x2)
        Serial Number:
            de:89:2e:8c:ea:fd:81:5d:c8:34:01:6a:9b:10:92:5b
        Signature Algorithm: sha256WithRSAEncryption
        Issuer: CN=1935153
        Validity
            Not Before: Dec 18 12:45:06 2024 GMT
            Not After : Dec  3 12:45:06 2027 GMT
        Subject: CN=client_2
        Subject Public Key Info:
            Public Key Algorithm: rsaEncryption
                RSA Public-Key: (2048 bit)
                Modulus:
                    00:eb:2a:54:68:3c:62:cf:26:47:a6:90:ae:6e:3b:
                    48:09:97:d2:f4:5c:32:88:59:52:eb:4a:39:cc:06:
                    9b:a9:9f:d8:b1:cd:30:9e:39:e5:0e:e9:e2:24:05:
                    58:39:c9:3c:9c:a0:62:43:91:7a:5d:9c:b2:5e:23:
                    b7:b2:42:3f:de:46:43:3c:e7:e1:9b:65:1d:c6:8b:
                    09:cf:f4:8b:f4:e6:e1:49:ab:16:bb:50:f8:4f:ae:
                    69:99:52:13:1e:da:06:6f:82:a1:96:92:36:2c:30:
                    64:bb:90:65:58:75:c8:69:b0:9f:63:da:ca:b3:e2:
                    3c:3b:26:04:80:ae:3a:ed:96:01:6e:c7:5d:46:ee:
                    c7:bf:f1:ba:58:b0:86:f2:9b:ce:68:a1:85:d2:68:
                    3a:1e:d7:de:e2:f9:88:c3:69:47:bf:2d:ff:3b:f0:
                    4b:52:56:1e:2a:17:89:e2:99:e8:9e:65:a7:fc:25:
                    ca:40:98:a6:d2:bb:ab:53:15:95:68:4b:57:6f:05:
                    ab:8b:2a:88:85:52:ef:bf:8a:83:de:65:e3:6d:32:
                    ba:1e:f1:42:7a:e4:5f:98:b7:78:e2:d9:3a:97:0a:
                    f1:3c:aa:4c:b1:6c:19:f9:ba:80:86:9e:da:3d:db:
                    58:a8:cd:b7:2f:69:d3:05:94:0f:e1:03:c2:d0:2a:
                    45:9b
                Exponent: 65537 (0x10001)
        X509v3 extensions:
            X509v3 Basic Constraints: 
                CA:FALSE
            X509v3 Subject Key Identifier: 
                63:11:72:F8:37:D6:A9:CE:A4:CA:74:7D:B5:F1:F7:3D:02:F7:80:AE
            X509v3 Authority Key Identifier: 
                keyid:23:1E:F8:69:3A:19:1F:EE:C6:4E:88:FF:6B:75:46:C8:5A:83:79:A6
                DirName:/CN=1935153
                serial:0B:60:16:AF:9F:D4:AA:D3:F3:F1:DC:83:B0:7D:BA:76:54:1F:B0:CE

            X509v3 Extended Key Usage: 
                TLS Web Client Authentication
            X509v3 Key Usage: 
                Digital Signature
    Signature Algorithm: sha256WithRSAEncryption
         6d:3a:22:90:6b:df:57:27:21:d1:3e:83:02:85:d4:a7:20:22:
         74:92:84:f7:c0:d4:af:66:2a:90:57:52:83:ba:1b:db:fb:45:
         9d:0b:ac:2b:3a:1f:f6:80:f6:63:ad:9f:67:47:1d:8f:1d:45:
         03:d3:a9:a5:0d:e1:3a:ca:ed:e2:8d:43:55:c4:4d:bf:f0:bd:
         43:0d:b6:7e:62:b8:5a:94:49:95:6d:c9:ac:96:17:b6:6d:04:
         88:c3:23:a0:6f:90:a5:8c:56:7c:11:f3:a6:50:aa:d8:9c:59:
         13:21:99:75:b3:82:d8:75:3e:6d:4c:1c:d2:e7:6c:6e:42:9d:
         1e:f8:a7:6f:f1:2a:0d:41:f2:1d:aa:31:74:af:52:e6:af:ed:
         09:39:4f:a7:ff:69:ea:4f:c5:e2:b7:a7:0f:30:75:03:e8:e4:
         7e:e5:67:cb:37:08:3f:6b:6d:14:6d:ea:63:60:95:d9:b9:05:
         2b:51:8f:0f:d0:21:9c:35:b8:0f:ce:69:e2:b1:92:92:f1:ac:
         6b:b3:77:17:32:69:17:6c:de:39:a0:14:b9:6f:a5:ad:f8:25:
         c5:c3:4c:e0:39:d0:6f:88:6d:cd:59:86:40:72:e6:e8:d5:09:
         de:ff:71:df:b5:5c:24:8c:1e:53:3b:b3:d8:65:22:7a:84:b8:
         d3:8e:68:be
-----BEGIN CERTIFICATE-----
MIIDTzCCAjegAwIBAgIRAN6JLozq/YFdyDQBapsQklswDQYJKoZIhvcNAQELBQAw
EjEQMA4GA1UEAwwHMTkzNTE1MzAeFw0yNDEyMTgxMjQ1MDZaFw0yNzEyMDMxMjQ1
MDZaMBMxETAPBgNVBAMMCGNsaWVudF8yMIIBIjANBgkqhkiG9w0BAQEFAAOCAQ8A
MIIBCgKCAQEA6ypUaDxizyZHppCubjtICZfS9FwyiFlS60o5zAabqZ/Ysc0wnjnl
DuniJAVYOck8nKBiQ5F6XZyyXiO3skI/3kZDPOfhm2UdxosJz/SL9ObhSasWu1D4
T65pmVITHtoGb4KhlpI2LDBku5BlWHXIabCfY9rKs+I8OyYEgK467ZYBbsddRu7H
v/G6WLCG8pvOaKGF0mg6Htfe4vmIw2lHvy3/O/BLUlYeKheJ4pnonmWn/CXKQJim
0rurUxWVaEtXbwWriyqIhVLvv4qD3mXjbTK6HvFCeuRfmLd44tk6lwrxPKpMsWwZ
+bqAhp7aPdtYqM23L2nTBZQP4QPC0CpFmwIDAQABo4GeMIGbMAkGA1UdEwQCMAAw
HQYDVR0OBBYEFGMRcvg31qnOpMp0fbXx9z0C94CuME0GA1UdIwRGMESAFCMe+Gk6
GR/uxk6I/2t1Rshag3mmoRakFDASMRAwDgYDVQQDDAcxOTM1MTUzghQLYBavn9Sq
0/Px3IOwfbp2VB+wzjATBgNVHSUEDDAKBggrBgEFBQcDAjALBgNVHQ8EBAMCB4Aw
DQYJKoZIhvcNAQELBQADggEBAG06IpBr31cnIdE+gwKF1KcgInSShPfA1K9mKpBX
UoO6G9v7RZ0LrCs6H/aA9mOtn2dHHY8dRQPTqaUN4TrK7eKNQ1XETb/wvUMNtn5i
uFqUSZVtyayWF7ZtBIjDI6BvkKWMVnwR86ZQqticWRMhmXWzgth1Pm1MHNLnbG5C
nR74p2/xKg1B8h2qMXSvUuav7Qk5T6f/aepPxeK3pw8wdQPo5H7lZ8s3CD9rbRRt
6mNgldm5BStRjw/QIZw1uA/OaeKxkpLxrGuzdxcyaRds3jmgFLlvpa34JcXDTOA5
0G+Ibc1ZhkBy5ujVCd7/cd+1XCSMHlM7s9hlInqEuNOOaL4=
-----END CERTIFICATE-----
